(dp0
Vfullscreen_mode
p1
I0
sVorientation
p2
Vhorizontal
p3
sVfocus
p4
(lp5
I34909520
aI34911600
aI34241616
asVurgent
p6
I00
sVlast_split_layout
p7
Vsplith
p8
sVfloating
p9
Vauto_off
p10
sVborder
p11
Vpixel
p12
sVid
p13
I34241120
sVcurrent_border_width
p14
I-1
sVlayout
p15
Vsplith
p16
sVpercent
p17
NsVworkspace_layout
p18
Vdefault
p19
sVwindow
p20
NsVnodes
p21
(lp22
(dp23
Vfullscreen_mode
p24
I0
sVorientation
p25
Vnone
p26
sVfocus
p27
(lp28
I34242112
asVurgent
p29
I00
sVlast_split_layout
p30
Vsplith
p31
sVfloating
p32
Vauto_off
p33
sVborder
p34
Vpixel
p35
sVid
p36
I34241616
sVcurrent_border_width
p37
I-1
sVlayout
p38
Voutput
p39
sVpercent
p40
F0.3333333333333333
sVworkspace_layout
p41
Vdefault
p42
sVwindow
p43
NsVnodes
p44
(lp45
(dp46
Vfullscreen_mode
p47
I0
sVorientation
p48
Vhorizontal
p49
sVfocus
p50
(lp51
I34242672
asVurgent
p52
I00
sVlast_split_layout
p53
Vsplith
p54
sVfloating
p55
Vauto_off
p56
sVborder
p57
Vpixel
p58
sVid
p59
I34242112
sVcurrent_border_width
p60
I-1
sVlayout
p61
Vsplith
p62
sVpercent
p63
NsVworkspace_layout
p64
Vdefault
p65
sVwindow
p66
NsVnodes
p67
(lp68
(dp69
Vfullscreen_mode
p70
I1
sVorientation
p71
Vnone
p72
sVfocus
p73
(lp74
sVurgent
p75
I00
sVnum
p76
I-1
sVlast_split_layout
p77
Vsplith
p78
sVfloating
p79
Vauto_off
p80
sVborder
p81
Vpixel
p82
sVid
p83
I34242672
sVcurrent_border_width
p84
I-1
sVlayout
p85
Vsplith
p86
sVpercent
p87
NsVworkspace_layout
p88
Vdefault
p89
sVwindow
p90
NsVnodes
p91
(lp92
sVtype
p93
Vworkspace
p94
sVdeco_rect
p95
(dp96
Vy
p97
I0
sVx
p98
I0
sVheight
p99
I0
sVwidth
p100
I0
ssVswallows
p101
(lp102
sVfocused
p103
I00
sVscratchpad_state
p104
Vnone
p105
sVrect
p106
(dp107
g97
I0
sg98
I0
sVheight
p108
I0
sVwidth
p109
I0
ssVwindow_rect
p110
(dp111
g97
I0
sg98
I0
sVheight
p112
I0
sVwidth
p113
I0
ssVname
p114
V__i3_scratch
p115
sVgeometry
p116
(dp117
g97
I0
sg98
I0
sVheight
p118
I0
sVwidth
p119
I0
ssVfloating_nodes
p120
(lp121
sasVtype
p122
Vcon
p123
sVdeco_rect
p124
(dp125
g97
I0
sg98
I0
sVheight
p126
I0
sVwidth
p127
I0
ssVswallows
p128
(lp129
sVfocused
p130
I00
sVscratchpad_state
p131
Vnone
p132
sVrect
p133
(dp134
g97
I0
sg98
I0
sVheight
p135
I0
sVwidth
p136
I0
ssVwindow_rect
p137
(dp138
g97
I0
sg98
I0
sVheight
p139
I0
sVwidth
p140
I0
ssVname
p141
Vcontent
p142
sVgeometry
p143
(dp144
g97
I0
sg98
I0
sVheight
p145
I0
sVwidth
p146
I0
ssVfloating_nodes
p147
(lp148
sasVtype
p149
Voutput
p150
sVdeco_rect
p151
(dp152
g97
I0
sg98
I0
sVheight
p153
I0
sVwidth
p154
I0
ssVswallows
p155
(lp156
sVfocused
p157
I00
sVscratchpad_state
p158
Vnone
p159
sVrect
p160
(dp161
g97
I0
sg98
I0
sVheight
p162
I7200
sVwidth
p163
I11520
ssVwindow_rect
p164
(dp165
g97
I0
sg98
I0
sVheight
p166
I0
sVwidth
p167
I0
ssVname
p168
V__i3
p169
sVgeometry
p170
(dp171
g97
I0
sg98
I0
sVheight
p172
I0
sVwidth
p173
I0
ssVfloating_nodes
p174
(lp175
sa(dp176
Vfullscreen_mode
p177
I0
sVorientation
p178
Vnone
p179
sVfocus
p180
(lp181
I34912736
aI34912128
aI34913328
asVurgent
p182
I00
sVlast_split_layout
p183
Vsplith
p184
sVfloating
p185
Vauto_off
p186
sVborder
p187
Vpixel
p188
sVid
p189
I34911600
sVcurrent_border_width
p190
I-1
sVlayout
p191
Voutput
p192
sVpercent
p193
F0.3333333333333333
sVworkspace_layout
p194
Vdefault
p195
sVwindow
p196
NsVnodes
p197
(lp198
(dp199
Vfullscreen_mode
p200
I0
sVorientation
p201
Vnone
p202
sVfocus
p203
(lp204
I34922512
asVurgent
p205
I00
sVlast_split_layout
p206
Vsplith
p207
sVfloating
p208
Vauto_off
p209
sVborder
p210
Vpixel
p211
sVid
p212
I34912128
sVcurrent_border_width
p213
I-1
sVlayout
p214
Vdockarea
p215
sVpercent
p216
NsVworkspace_layout
p217
Vdefault
p218
sVwindow
p219
NsVnodes
p220
(lp221
(dp222
Vwindow_properties
p223
(dp224
Vinstance
p225
Vi3bar
p226
sVtransient_for
p227
NsVclass
p228
Vi3bar
p229
sVtitle
p230
Vi3bar for output LVDS-0
p231
ssVfullscreen_mode
p232
I0
sVorientation
p233
Vnone
p234
sVprocess
p235
S'i3bar'
p236
sVfocus
p237
(lp238
sVurgent
p239
I00
sVlast_split_layout
p240
Vsplith
p241
sVfloating
p242
Vauto_off
p243
sVborder
p244
Vpixel
p245
sVid
p246
I34922512
sVcurrent_border_width
p247
I1
sVlayout
p248
Vsplith
p249
sVpercent
p250
F1.0
sVworkspace_layout
p251
Vdefault
p252
sVwindow
p253
I14680071
sVnodes
p254
(lp255
sVtype
p256
Vcon
p257
sVdeco_rect
p258
(dp259
g97
I0
sg98
I0
sVheight
p260
I0
sVwidth
p261
I0
ssVswallows
p262
(lp263
sVfocused
p264
I00
sVscratchpad_state
p265
Vnone
p266
sVrect
p267
(dp268
g97
I0
sg98
I0
sVheight
p269
I21
sVwidth
p270
I1280
ssVwindow_rect
p271
(dp272
g97
I0
sg98
I0
sVheight
p273
I21
sVwidth
p274
I1280
ssVname
p275
Vi3bar for output LVDS-0
p276
sVgeometry
p277
(dp278
g97
I779
sg98
I0
sVheight
p279
I21
sVwidth
p280
I1280
ssVfloating_nodes
p281
(lp282
sasVtype
p283
Vdockarea
p284
sVdeco_rect
p285
(dp286
g97
I0
sg98
I0
sVheight
p287
I0
sVwidth
p288
I0
ssVswallows
p289
(lp290
(dp291
Vdock
p292
I2
sVinsert_where
p293
I2
sasVfocused
p294
I00
sVscratchpad_state
p295
Vnone
p296
sVrect
p297
(dp298
g97
I0
sg98
I0
sVheight
p299
I21
sVwidth
p300
I1280
ssVwindow_rect
p301
(dp302
g97
I0
sg98
I0
sVheight
p303
I0
sVwidth
p304
I0
ssVname
p305
Vtopdock
p306
sVgeometry
p307
(dp308
g97
I0
sg98
I0
sVheight
p309
I0
sVwidth
p310
I0
ssVfloating_nodes
p311
(lp312
sa(dp313
Vfullscreen_mode
p314
I0
sVorientation
p315
Vhorizontal
p316
sVfocus
p317
(lp318
I34930480
aI34933408
aI34915872
asVurgent
p319
I00
sVlast_split_layout
p320
Vsplith
p321
sVfloating
p322
Vauto_off
p323
sVborder
p324
Vpixel
p325
sVid
p326
I34912736
sVcurrent_border_width
p327
I-1
sVlayout
p328
Vsplith
p329
sVpercent
p330
NsVworkspace_layout
p331
Vdefault
p332
sVwindow
p333
NsVnodes
p334
(lp335
(dp336
Vfullscreen_mode
p337
I1
sVorientation
p338
Vhorizontal
p339
sVfocus
p340
(lp341
I34926352
asVurgent
p342
I00
sVnum
p343
I2
sVlast_split_layout
p344
Vsplith
p345
sVfloating
p346
Vauto_off
p347
sVborder
p348
Vpixel
p349
sVid
p350
I34930480
sVcurrent_border_width
p351
I-1
sVlayout
p352
Vsplith
p353
sVpercent
p354
NsVworkspace_layout
p355
Vdefault
p356
sVwindow
p357
NsVnodes
p358
(lp359
(dp360
Vwindow_properties
p361
(dp362
Vinstance
p363
Vurxvt
p364
sVtransient_for
p365
NsVclass
p366
VURxvt
p367
sVtitle
p368
VWeeChat 1.1.1
p369
ssVfullscreen_mode
p370
I0
sVorientation
p371
Vnone
p372
sg235
S'urxvt'
p373
sVfocus
p374
(lp375
sVurgent
p376
I00
sVlast_split_layout
p377
Vsplith
p378
sVfloating
p379
Vuser_off
p380
sVborder
p381
Vpixel
p382
sVid
p383
I34926352
sVcurrent_border_width
p384
I1
sVlayout
p385
Vsplith
p386
sVpercent
p387
F1.0
sVworkspace_layout
p388
Vdefault
p389
sVwindow
p390
I12582922
sVnodes
p391
(lp392
sVtype
p393
Vcon
p394
sVdeco_rect
p395
(dp396
g97
I0
sg98
I0
sVheight
p397
I0
sVwidth
p398
I0
ssVswallows
p399
(lp400
sVfocused
p401
I00
sVscratchpad_state
p402
Vnone
p403
sVrect
p404
(dp405
g97
I21
sg98
I0
sVheight
p406
I779
sVwidth
p407
I1280
ssVwindow_rect
p408
(dp409
g97
I1
sg98
I1
sVheight
p410
I777
sVwidth
p411
I1278
ssVname
p412
VWeeChat 1.1.1
p413
sVgeometry
p414
(dp415
g97
I0
sg98
I0
sVheight
p416
I366
sVwidth
p417
I816
ssVfloating_nodes
p418
(lp419
sasVtype
p420
Vworkspace
p421
sVdeco_rect
p422
(dp423
g97
I0
sg98
I0
sVheight
p424
I0
sVwidth
p425
I0
ssVswallows
p426
(lp427
sVfocused
p428
I00
sVscratchpad_state
p429
Vnone
p430
sVrect
p431
(dp432
g97
I21
sg98
I0
sVheight
p433
I779
sVwidth
p434
I1280
ssVwindow_rect
p435
(dp436
g97
I0
sg98
I0
sVheight
p437
I0
sVwidth
p438
I0
ssVname
p439
V2
p440
sVgeometry
p441
(dp442
g97
I0
sg98
I0
sVheight
p443
I0
sVwidth
p444
I0
ssVfloating_nodes
p445
(lp446
sa(dp447
Vfullscreen_mode
p448
I0
sVorientation
p449
Vhorizontal
p450
sVfocus
p451
(lp452
I34934224
asVurgent
p453
I00
sVnum
p454
I3
sVlast_split_layout
p455
Vsplith
p456
sVfloating
p457
Vauto_off
p458
sVborder
p459
Vpixel
p460
sVid
p461
I34933408
sVcurrent_border_width
p462
I-1
sVlayout
p463
Vsplith
p464
sVpercent
p465
NsVworkspace_layout
p466
Vdefault
p467
sVwindow
p468
NsVnodes
p469
(lp470
(dp471
Vwindow_properties
p472
(dp473
Vinstance
p474
Vskype
p475
sVtransient_for
p476
NsVwindow_role
p477
VConversationsWindow
p478
sVclass
p479
VSkype
p480
sVtitle
p481
VEthan - Skype\u2122
p482
ssVfullscreen_mode
p483
I0
sVorientation
p484
Vnone
p485
sg235
S'skype'
p486
sVfocus
p487
(lp488
sVurgent
p489
I00
sVlast_split_layout
p490
Vsplith
p491
sVfloating
p492
Vauto_off
p493
sVborder
p494
Vpixel
p495
sVid
p496
I34934224
sVcurrent_border_width
p497
I1
sVlayout
p498
Vsplith
p499
sVpercent
p500
F1.0
sVworkspace_layout
p501
Vdefault
p502
sVwindow
p503
I20971721
sVnodes
p504
(lp505
sVtype
p506
Vcon
p507
sVdeco_rect
p508
(dp509
g97
I0
sg98
I0
sVheight
p510
I0
sVwidth
p511
I0
ssVswallows
p512
(lp513
sVfocused
p514
I00
sVscratchpad_state
p515
Vnone
p516
sVrect
p517
(dp518
g97
I21
sg98
I0
sVheight
p519
I779
sVwidth
p520
I1280
ssVwindow_rect
p521
(dp522
g97
I1
sg98
I1
sVheight
p523
I777
sVwidth
p524
I1278
ssVname
p525
VEthan - Skype\u2122
p526
sVgeometry
p527
(dp528
g97
I22
sg98
I1
sVheight
p529
I777
sVwidth
p530
I1278
ssVfloating_nodes
p531
(lp532
sasVtype
p533
Vworkspace
p534
sVdeco_rect
p535
(dp536
g97
I0
sg98
I0
sVheight
p537
I0
sVwidth
p538
I0
ssVswallows
p539
(lp540
sVfocused
p541
I00
sVscratchpad_state
p542
Vnone
p543
sVrect
p544
(dp545
g97
I21
sg98
I0
sVheight
p546
I779
sVwidth
p547
I1280
ssVwindow_rect
p548
(dp549
g97
I0
sg98
I0
sVheight
p550
I0
sVwidth
p551
I0
ssVname
p552
V3
p553
sVgeometry
p554
(dp555
g97
I0
sg98
I0
sVheight
p556
I0
sVwidth
p557
I0
ssVfloating_nodes
p558
(lp559
sa(dp560
Vfullscreen_mode
p561
I0
sVorientation
p562
Vhorizontal
p563
sVfocus
p564
(lp565
I34926720
aI34925040
asVurgent
p566
I00
sVnum
p567
I10
sVlast_split_layout
p568
Vsplith
p569
sVfloating
p570
Vauto_off
p571
sVborder
p572
Vpixel
p573
sVid
p574
I34915872
sVcurrent_border_width
p575
I-1
sVlayout
p576
Vsplith
p577
sVpercent
p578
F1.0
sVworkspace_layout
p579
Vdefault
p580
sVwindow
p581
NsVnodes
p582
(lp583
(dp584
Vwindow_properties
p585
(dp586
Vinstance
p587
Vqbittorrent
p588
sVtransient_for
p589
NsVclass
p590
VQbittorrent
p591
sVtitle
p592
VqBittorrent v3.1.12
p593
ssVfullscreen_mode
p594
I0
sVorientation
p595
Vnone
p596
sg235
S'qbittorrent'
p597
sVfocus
p598
(lp599
sVurgent
p600
I00
sVlast_split_layout
p601
Vsplith
p602
sVfloating
p603
Vauto_off
p604
sVborder
p605
Vpixel
p606
sVid
p607
I34926720
sVcurrent_border_width
p608
I1
sVlayout
p609
Vsplith
p610
sVpercent
p611
F0.5
sVworkspace_layout
p612
Vdefault
p613
sVwindow
p614
I25165845
sVnodes
p615
(lp616
sVtype
p617
Vcon
p618
sVdeco_rect
p619
(dp620
g97
I0
sg98
I0
sVheight
p621
I0
sVwidth
p622
I0
ssVswallows
p623
(lp624
sVfocused
p625
I00
sVscratchpad_state
p626
Vnone
p627
sVrect
p628
(dp629
g97
I21
sg98
I0
sVheight
p630
I779
sVwidth
p631
I640
ssVwindow_rect
p632
(dp633
g97
I1
sg98
I1
sVheight
p634
I777
sVwidth
p635
I638
ssVname
p636
VqBittorrent v3.1.12
p637
sVgeometry
p638
(dp639
g97
I22
sg98
I640
sVheight
p640
I776
sVwidth
p641
I638
ssVfloating_nodes
p642
(lp643
sa(dp644
Vwindow_properties
p645
(dp646
Vinstance
p647
VMail
p648
sVtransient_for
p649
NsVwindow_role
p650
V3pane
p651
sVclass
p652
VThunderbird
p653
sVtitle
p654
VInbox - ewhal4@live.com - Mozilla Thunderbird
p655
ssVfullscreen_mode
p656
I0
sVorientation
p657
Vnone
p658
sg235
S'thunderbird'
p659
sVfocus
p660
(lp661
sVurgent
p662
I00
sVlast_split_layout
p663
Vsplith
p664
sVfloating
p665
Vauto_off
p666
sVborder
p667
Vpixel
p668
sVid
p669
I34925040
sVcurrent_border_width
p670
I1
sVlayout
p671
Vsplith
p672
sVpercent
p673
F0.5
sVworkspace_layout
p674
Vdefault
p675
sVwindow
p676
I18874519
sVnodes
p677
(lp678
sVtype
p679
Vcon
p680
sVdeco_rect
p681
(dp682
g97
I0
sg98
I0
sVheight
p683
I0
sVwidth
p684
I0
ssVswallows
p685
(lp686
sVfocused
p687
I00
sVscratchpad_state
p688
Vnone
p689
sVrect
p690
(dp691
g97
I21
sg98
I640
sVheight
p692
I779
sVwidth
p693
I640
ssVwindow_rect
p694
(dp695
g97
I1
sg98
I1
sVheight
p696
I777
sVwidth
p697
I638
ssVname
p698
VInbox - ewhal4@live.com - Mozilla Thunderbird
p699
sVgeometry
p700
(dp701
g97
I0
sg98
I0
sVheight
p702
I776
sVwidth
p703
I1278
ssVfloating_nodes
p704
(lp705
sasVtype
p706
Vworkspace
p707
sVdeco_rect
p708
(dp709
g97
I0
sg98
I0
sVheight
p710
I0
sVwidth
p711
I0
ssVswallows
p712
(lp713
sVfocused
p714
I00
sVscratchpad_state
p715
Vnone
p716
sVrect
p717
(dp718
g97
I21
sg98
I0
sVheight
p719
I779
sVwidth
p720
I1280
ssVwindow_rect
p721
(dp722
g97
I0
sg98
I0
sVheight
p723
I0
sVwidth
p724
I0
ssVname
p725
V10
p726
sVgeometry
p727
(dp728
g97
I0
sg98
I0
sVheight
p729
I0
sVwidth
p730
I0
ssVfloating_nodes
p731
(lp732
sasVtype
p733
Vcon
p734
sVdeco_rect
p735
(dp736
g97
I0
sg98
I0
sVheight
p737
I0
sVwidth
p738
I0
ssVswallows
p739
(lp740
sVfocused
p741
I00
sVscratchpad_state
p742
Vnone
p743
sVrect
p744
(dp745
g97
I21
sg98
I0
sVheight
p746
I779
sVwidth
p747
I1280
ssVwindow_rect
p748
(dp749
g97
I0
sg98
I0
sVheight
p750
I0
sVwidth
p751
I0
ssVname
p752
Vcontent
p753
sVgeometry
p754
(dp755
g97
I0
sg98
I0
sVheight
p756
I0
sVwidth
p757
I0
ssVfloating_nodes
p758
(lp759
sa(dp760
Vfullscreen_mode
p761
I0
sVorientation
p762
Vnone
p763
sVfocus
p764
(lp765
sVurgent
p766
I00
sVlast_split_layout
p767
Vsplith
p768
sVfloating
p769
Vauto_off
p770
sVborder
p771
Vpixel
p772
sVid
p773
I34913328
sVcurrent_border_width
p774
I-1
sVlayout
p775
Vdockarea
p776
sVpercent
p777
NsVworkspace_layout
p778
Vdefault
p779
sVwindow
p780
NsVnodes
p781
(lp782
sVtype
p783
Vdockarea
p784
sVdeco_rect
p785
(dp786
g97
I0
sg98
I0
sVheight
p787
I0
sVwidth
p788
I0
ssVswallows
p789
(lp790
(dp791
Vdock
p792
I3
sVinsert_where
p793
I2
sasVfocused
p794
I00
sVscratchpad_state
p795
Vnone
p796
sVrect
p797
(dp798
g97
I800
sg98
I0
sVheight
p799
I0
sVwidth
p800
I1280
ssVwindow_rect
p801
(dp802
g97
I0
sg98
I0
sVheight
p803
I0
sVwidth
p804
I0
ssVname
p805
Vbottomdock
p806
sVgeometry
p807
(dp808
g97
I0
sg98
I0
sVheight
p809
I0
sVwidth
p810
I0
ssVfloating_nodes
p811
(lp812
sasVtype
p813
Voutput
p814
sVdeco_rect
p815
(dp816
g97
I0
sg98
I0
sVheight
p817
I0
sVwidth
p818
I0
ssVswallows
p819
(lp820
sVfocused
p821
I00
sVscratchpad_state
p822
Vnone
p823
sVrect
p824
(dp825
g97
I0
sg98
I0
sVheight
p826
I800
sVwidth
p827
I1280
ssVwindow_rect
p828
(dp829
g97
I0
sg98
I0
sVheight
p830
I0
sVwidth
p831
I0
ssVname
p832
VLVDS-0
p833
sVgeometry
p834
(dp835
g97
I0
sg98
I0
sVheight
p836
I0
sVwidth
p837
I0
ssVfloating_nodes
p838
(lp839
sa(dp840
Vfullscreen_mode
p841
I0
sVorientation
p842
Vnone
p843
sVfocus
p844
(lp845
I34910496
aI34909888
aI34910992
asVurgent
p846
I00
sVlast_split_layout
p847
Vsplith
p848
sVfloating
p849
Vauto_off
p850
sVborder
p851
Vpixel
p852
sVid
p853
I34909520
sVcurrent_border_width
p854
I-1
sVlayout
p855
Voutput
p856
sVpercent
p857
F0.3333333333333333
sVworkspace_layout
p858
Vdefault
p859
sVwindow
p860
NsVnodes
p861
(lp862
(dp863
Vfullscreen_mode
p864
I0
sVorientation
p865
Vnone
p866
sVfocus
p867
(lp868
sVurgent
p869
I00
sVlast_split_layout
p870
Vsplith
p871
sVfloating
p872
Vauto_off
p873
sVborder
p874
Vpixel
p875
sVid
p876
I34909888
sVcurrent_border_width
p877
I-1
sVlayout
p878
Vdockarea
p879
sVpercent
p880
NsVworkspace_layout
p881
Vdefault
p882
sVwindow
p883
NsVnodes
p884
(lp885
sVtype
p886
Vdockarea
p887
sVdeco_rect
p888
(dp889
g97
I0
sg98
I0
sVheight
p890
I0
sVwidth
p891
I0
ssVswallows
p892
(lp893
(dp894
Vdock
p895
I2
sVinsert_where
p896
I2
sasVfocused
p897
I00
sVscratchpad_state
p898
Vnone
p899
sVrect
p900
(dp901
g97
I0
sg98
I1280
sVheight
p902
I0
sVwidth
p903
I1440
ssVwindow_rect
p904
(dp905
g97
I0
sg98
I0
sVheight
p906
I0
sVwidth
p907
I0
ssVname
p908
Vtopdock
p909
sVgeometry
p910
(dp911
g97
I0
sg98
I0
sVheight
p912
I0
sVwidth
p913
I0
ssVfloating_nodes
p914
(lp915
sa(dp916
Vfullscreen_mode
p917
I0
sVorientation
p918
Vhorizontal
p919
sVfocus
p920
(lp921
I34913936
asVurgent
p922
I00
sVlast_split_layout
p923
Vsplith
p924
sVfloating
p925
Vauto_off
p926
sVborder
p927
Vpixel
p928
sVid
p929
I34910496
sVcurrent_border_width
p930
I-1
sVlayout
p931
Vsplith
p932
sVpercent
p933
NsVworkspace_layout
p934
Vdefault
p935
sVwindow
p936
NsVnodes
p937
(lp938
(dp939
Vfullscreen_mode
p940
I1
sVorientation
p941
Vhorizontal
p942
sVfocus
p943
(lp944
I34930112
aI34927216
asVurgent
p945
I00
sVnum
p946
I1
sVlast_split_layout
p947
Vsplith
p948
sVfloating
p949
Vauto_off
p950
sVborder
p951
Vpixel
p952
sVid
p953
I34913936
sVcurrent_border_width
p954
I-1
sVlayout
p955
Vsplith
p956
sVpercent
p957
F1.0
sVworkspace_layout
p958
Vdefault
p959
sVwindow
p960
NsVnodes
p961
(lp962
(dp963
Vwindow_properties
p964
(dp965
Vinstance
p966
VNavigator
p967
sVtransient_for
p968
NsVwindow_role
p969
Vbrowser
p970
sVclass
p971
VFirefox
p972
sVtitle
p973
V(3) /g/ - Daily Programming Thread - Technology - 4chan - Vimperator
p974
ssVfullscreen_mode
p975
I0
sVorientation
p976
Vnone
p977
sg235
S'firefox'
p978
sVfocus
p979
(lp980
sVurgent
p981
I00
sVlast_split_layout
p982
Vsplith
p983
sVfloating
p984
Vauto_off
p985
sVborder
p986
Vpixel
p987
sVid
p988
I34927216
sVcurrent_border_width
p989
I1
sVlayout
p990
Vsplith
p991
sVpercent
p992
F0.5
sVworkspace_layout
p993
Vdefault
p994
sVwindow
p995
I23068823
sVnodes
p996
(lp997
sVtype
p998
Vcon
p999
sVdeco_rect
p1000
(dp1001
g97
I0
sg98
I0
sVheight
p1002
I0
sVwidth
p1003
I0
ssVswallows
p1004
(lp1005
sVfocused
p1006
I00
sVscratchpad_state
p1007
Vnone
p1008
sVrect
p1009
(dp1010
g97
I0
sg98
I1280
sVheight
p1011
I900
sVwidth
p1012
I720
ssVwindow_rect
p1013
(dp1014
g97
I1
sg98
I1
sVheight
p1015
I898
sVwidth
p1016
I718
ssVname
p1017
V(3) /g/ - Daily Programming Thread - Technology - 4chan - Vimperator
p1018
sVgeometry
p1019
(dp1020
g97
I0
sg98
I0
sVheight
p1021
I800
sVwidth
p1022
I1280
ssVfloating_nodes
p1023
(lp1024
sa(dp1025
Vwindow_properties
p1026
(dp1027
Vinstance
p1028
Vurxvt
p1029
sVtransient_for
p1030
NsVclass
p1031
VURxvt
p1032
sVtitle
p1033
Vnormal.sh (~/Git/scripts) - VIM
p1034
ssVfullscreen_mode
p1035
I0
sVorientation
p1036
Vnone
p1037
sg235
S'urxvt'
p1038
sVfocus
p1039
(lp1040
sVurgent
p1041
I00
sVlast_split_layout
p1042
Vsplith
p1043
sVfloating
p1044
Vuser_off
p1045
sVborder
p1046
Vpixel
p1047
sVid
p1048
I34930112
sVcurrent_border_width
p1049
I1
sVlayout
p1050
Vsplith
p1051
sVpercent
p1052
F0.5
sVworkspace_layout
p1053
Vdefault
p1054
sVwindow
p1055
I16777226
sVnodes
p1056
(lp1057
sVtype
p1058
Vcon
p1059
sVdeco_rect
p1060
(dp1061
g97
I0
sg98
I0
sVheight
p1062
I0
sVwidth
p1063
I0
ssVswallows
p1064
(lp1065
sVfocused
p1066
I01
sVscratchpad_state
p1067
Vnone
p1068
sVrect
p1069
(dp1070
g97
I0
sg98
I2000
sVheight
p1071
I900
sVwidth
p1072
I720
ssVwindow_rect
p1073
(dp1074
g97
I1
sg98
I1
sVheight
p1075
I898
sVwidth
p1076
I718
ssVname
p1077
Vnormal.sh (~/Git/scripts) - VIM
p1078
sVgeometry
p1079
(dp1080
g97
I0
sg98
I0
sVheight
p1081
I366
sVwidth
p1082
I816
ssVfloating_nodes
p1083
(lp1084
sasVtype
p1085
Vworkspace
p1086
sVdeco_rect
p1087
(dp1088
g97
I0
sg98
I0
sVheight
p1089
I0
sVwidth
p1090
I0
ssVswallows
p1091
(lp1092
sVfocused
p1093
I00
sVscratchpad_state
p1094
Vnone
p1095
sVrect
p1096
(dp1097
g97
I0
sg98
I1280
sVheight
p1098
I900
sVwidth
p1099
I1440
ssVwindow_rect
p1100
(dp1101
g97
I0
sg98
I0
sVheight
p1102
I0
sVwidth
p1103
I0
ssVname
p1104
V1
p1105
sVgeometry
p1106
(dp1107
g97
I0
sg98
I0
sVheight
p1108
I0
sVwidth
p1109
I0
ssVfloating_nodes
p1110
(lp1111
sasVtype
p1112
Vcon
p1113
sVdeco_rect
p1114
(dp1115
g97
I0
sg98
I0
sVheight
p1116
I0
sVwidth
p1117
I0
ssVswallows
p1118
(lp1119
sVfocused
p1120
I00
sVscratchpad_state
p1121
Vnone
p1122
sVrect
p1123
(dp1124
g97
I0
sg98
I1280
sVheight
p1125
I900
sVwidth
p1126
I1440
ssVwindow_rect
p1127
(dp1128
g97
I0
sg98
I0
sVheight
p1129
I0
sVwidth
p1130
I0
ssVname
p1131
Vcontent
p1132
sVgeometry
p1133
(dp1134
g97
I0
sg98
I0
sVheight
p1135
I0
sVwidth
p1136
I0
ssVfloating_nodes
p1137
(lp1138
sa(dp1139
Vfullscreen_mode
p1140
I0
sVorientation
p1141
Vnone
p1142
sVfocus
p1143
(lp1144
sVurgent
p1145
I00
sVlast_split_layout
p1146
Vsplith
p1147
sVfloating
p1148
Vauto_off
p1149
sVborder
p1150
Vpixel
p1151
sVid
p1152
I34910992
sVcurrent_border_width
p1153
I-1
sVlayout
p1154
Vdockarea
p1155
sVpercent
p1156
NsVworkspace_layout
p1157
Vdefault
p1158
sVwindow
p1159
NsVnodes
p1160
(lp1161
sVtype
p1162
Vdockarea
p1163
sVdeco_rect
p1164
(dp1165
g97
I0
sg98
I0
sVheight
p1166
I0
sVwidth
p1167
I0
ssVswallows
p1168
(lp1169
(dp1170
Vdock
p1171
I3
sVinsert_where
p1172
I2
sasVfocused
p1173
I00
sVscratchpad_state
p1174
Vnone
p1175
sVrect
p1176
(dp1177
g97
I900
sg98
I1280
sVheight
p1178
I0
sVwidth
p1179
I1440
ssVwindow_rect
p1180
(dp1181
g97
I0
sg98
I0
sVheight
p1182
I0
sVwidth
p1183
I0
ssVname
p1184
Vbottomdock
p1185
sVgeometry
p1186
(dp1187
g97
I0
sg98
I0
sVheight
p1188
I0
sVwidth
p1189
I0
ssVfloating_nodes
p1190
(lp1191
sasVtype
p1192
Voutput
p1193
sVdeco_rect
p1194
(dp1195
g97
I0
sg98
I0
sVheight
p1196
I0
sVwidth
p1197
I0
ssVswallows
p1198
(lp1199
sVfocused
p1200
I00
sVscratchpad_state
p1201
Vnone
p1202
sVrect
p1203
(dp1204
g97
I0
sg98
I1280
sVheight
p1205
I900
sVwidth
p1206
I1440
ssVwindow_rect
p1207
(dp1208
g97
I0
sg98
I0
sVheight
p1209
I0
sVwidth
p1210
I0
ssVname
p1211
VVGA-0
p1212
sVgeometry
p1213
(dp1214
g97
I0
sg98
I0
sVheight
p1215
I0
sVwidth
p1216
I0
ssVfloating_nodes
p1217
(lp1218
sasVtype
p1219
Vroot
p1220
sVdeco_rect
p1221
(dp1222
g97
I0
sg98
I0
sVheight
p1223
I0
sVwidth
p1224
I0
ssVswallows
p1225
(lp1226
sVfocused
p1227
I00
sVscratchpad_state
p1228
Vnone
p1229
sVrect
p1230
(dp1231
g97
I0
sg98
I0
sVheight
p1232
I900
sVwidth
p1233
I2720
ssVwindow_rect
p1234
(dp1235
g97
I0
sg98
I0
sVheight
p1236
I0
sVwidth
p1237
I0
ssVname
p1238
Vroot
p1239
sVgeometry
p1240
(dp1241
g97
I0
sg98
I0
sVheight
p1242
I0
sVwidth
p1243
I0
ssVfloating_nodes
p1244
(lp1245
s.